; Function Attrs: mustprogress nounwind uwtable
define internal void @_ZN7rocksdb12_GLOBAL__N_115HashSkipListRep15DynamicIteratorD0Ev(ptr noundef nonnull align 8 dereferenceable(88) %this) unnamed_addr #0 align 2 personality ptr @__gxx_personality_v0 {
entry:
  store ptr getelementptr inbounds ({ [13 x ptr] }, ptr @_ZTVN7rocksdb12_GLOBAL__N_115HashSkipListRep8IteratorE, i64 0, i32 0, i64 2), ptr %this, align 8
  %own_list_.i.i = getelementptr inbounds i8, ptr %this, i64 32
  %0 = load i8, ptr %own_list_.i.i, align 8
  %1 = and i8 %0, 1
  %tobool.not.i.i = icmp eq i8 %1, 0
  br i1 %tobool.not.i.i, label %if.end.i.i, label %if.then.i.i

if.then.i.i:                                      ; preds = %entry
  %list_.i.i = getelementptr inbounds i8, ptr %this, i64 8
  %2 = load ptr, ptr %list_.i.i, align 8
  %isnull.i.i = icmp eq ptr %2, null
  br i1 %isnull.i.i, label %if.end.i.i, label %delete.notnull.i.i

delete.notnull.i.i:                               ; preds = %if.then.i.i
  tail call void @_ZdlPv(ptr noundef nonnull %2) #20
  br label %if.end.i.i

if.end.i.i:                                       ; preds = %delete.notnull.i.i, %if.then.i.i, %entry
  %tmp_.i.i = getelementptr inbounds i8, ptr %this, i64 48
  tail call void @_ZNSt7__cxx1112basic_stringIcSt11char_traitsIcESaIcEED1Ev(ptr noundef nonnull align 8 dereferenceable(32) %tmp_.i.i) #22
  %arena_.i.i = getelementptr inbounds i8, ptr %this, i64 40
  %3 = load ptr, ptr %arena_.i.i, align 8
  %cmp.not.i.i.i = icmp eq ptr %3, null
  br i1 %cmp.not.i.i.i, label %_ZN7rocksdb12_GLOBAL__N_115HashSkipListRep15DynamicIteratorD2Ev.exit, label %_ZNKSt14default_deleteIN7rocksdb5ArenaEEclEPS1_.exit.i.i.i

_ZNKSt14default_deleteIN7rocksdb5ArenaEEclEPS1_.exit.i.i.i: ; preds = %if.end.i.i
  %vtable.i.i.i.i = load ptr, ptr %3, align 16
  %vfn.i.i.i.i = getelementptr inbounds i8, ptr %vtable.i.i.i.i, i64 8
  %4 = load ptr, ptr %vfn.i.i.i.i, align 8
  tail call void %4(ptr noundef nonnull align 16 dereferenceable(2288) %3) #22
  br label %_ZN7rocksdb12_GLOBAL__N_115HashSkipListRep15DynamicIteratorD2Ev.exit

_ZN7rocksdb12_GLOBAL__N_115HashSkipListRep15DynamicIteratorD2Ev.exit: ; preds = %if.end.i.i, %_ZNKSt14default_deleteIN7rocksdb5ArenaEEclEPS1_.exit.i.i.i
  tail call void @_ZdlPv(ptr noundef nonnull %this) #20
  ret void
}